target datalayout = "e-m:e-p270:32:32-p271:32:32-p272:64:64-i64:64-i128:128-f80:128-n8:16:32:64-S128"
target triple = "x86_64-pc-linux-gnu"

%struct._lv_vector_draw_dsc_t = type { %struct._lv_vector_fill_dsc_t, %struct._lv_vector_stroke_dsc_t, %struct._lv_matrix_t, i32, %struct.lv_area_t }
%struct._lv_vector_fill_dsc_t = type { i32, %struct.lv_color32_t, i8, i32, %struct._lv_draw_image_dsc_t, %struct._lv_vector_gradient_t, %struct._lv_matrix_t }
%struct.lv_color32_t = type { i8, i8, i8, i8 }
%struct._lv_draw_image_dsc_t = type { %struct.lv_draw_dsc_base_t, ptr, %struct.lv_image_header_t, i32, i32, i32, i32, i32, %struct.lv_point_t, %struct.lv_color_t, i8, i8, i8, ptr, %struct.lv_area_t, i32, ptr }
%struct.lv_draw_dsc_base_t = type { ptr, i32, i32, i32, ptr, i64, ptr }
%struct.lv_image_header_t = type <{ i64, i32 }>
%struct.lv_point_t = type { i32, i32 }
%struct.lv_color_t = type { i8, i8, i8 }
%struct._lv_vector_gradient_t = type { i32, [2 x %struct.lv_gradient_stop_t], i16, float, float, float, float, float, float, float, i32 }
%struct.lv_gradient_stop_t = type { %struct.lv_color_t, i8, i8 }
%struct._lv_vector_stroke_dsc_t = type { i32, %struct.lv_color32_t, i8, float, %struct._lv_array_t, i32, i32, i16, %struct._lv_vector_gradient_t, %struct._lv_matrix_t }
%struct._lv_array_t = type { ptr, i32, i32, i32, i8 }
%struct._lv_matrix_t = type { [3 x [3 x float]] }
%struct.lv_area_t = type { i32, i32, i32, i32 }
%struct._lv_svg_render_obj = type { ptr, i32, ptr, %struct._lv_vector_draw_dsc_t, %struct._lv_matrix_t, ptr, ptr, ptr, ptr, ptr, ptr, ptr, ptr, ptr }
%struct.lv_svg_render_ellipse_t = type { %struct._lv_svg_render_obj, float, float, float, float }
%struct.lv_svg_attr_t = type { i8, i8, i8, %union.lv_svg_attr_value_t }
%union.lv_svg_attr_value_t = type { ptr }

; Function Attrs: nounwind uwtable
define internal void @_set_ellipse_attr(ptr noundef %0, ptr noundef %1, ptr noundef %2) #0 {
  %4 = alloca ptr, align 8
  %5 = alloca ptr, align 8
  %6 = alloca ptr, align 8
  %7 = alloca ptr, align 8
  store ptr %0, ptr %4, align 8, !tbaa !3
  store ptr %1, ptr %5, align 8, !tbaa !3
  store ptr %2, ptr %6, align 8, !tbaa !3
  %8 = load ptr, ptr %4, align 8, !tbaa !3
  %9 = load ptr, ptr %5, align 8, !tbaa !3
  %10 = load ptr, ptr %6, align 8, !tbaa !3
  call void @_set_attr(ptr noundef %8, ptr noundef %9, ptr noundef %10)
  call void @llvm.lifetime.start.p0(i64 8, ptr %7) #8
  %11 = load ptr, ptr %4, align 8, !tbaa !3
  store ptr %11, ptr %7, align 8, !tbaa !3
  %12 = load ptr, ptr %6, align 8, !tbaa !3
  %13 = getelementptr inbounds nuw %struct.lv_svg_attr_t, ptr %12, i32 0, i32 0
  %14 = load i8, ptr %13, align 8, !tbaa !154
  %15 = zext i8 %14 to i32
  switch i32 %15, label %40 [
    i32 17, label %16
    i32 18, label %22
    i32 15, label %28
    i32 16, label %34
  ]

16:                                               ; preds = %3
  %17 = load ptr, ptr %6, align 8, !tbaa !3
  %18 = getelementptr inbounds nuw %struct.lv_svg_attr_t, ptr %17, i32 0, i32 3
  %19 = load float, ptr %18, align 8, !tbaa !79
  %20 = load ptr, ptr %7, align 8, !tbaa !3
  %21 = getelementptr inbounds nuw %struct.lv_svg_render_ellipse_t, ptr %20, i32 0, i32 1
  store float %19, ptr %21, align 8, !tbaa !176
  br label %40

22:                                               ; preds = %3
  %23 = load ptr, ptr %6, align 8, !tbaa !3
  %24 = getelementptr inbounds nuw %struct.lv_svg_attr_t, ptr %23, i32 0, i32 3
  %25 = load float, ptr %24, align 8, !tbaa !79
  %26 = load ptr, ptr %7, align 8, !tbaa !3
  %27 = getelementptr inbounds nuw %struct.lv_svg_render_ellipse_t, ptr %26, i32 0, i32 2
  store float %25, ptr %27, align 4, !tbaa !177
  br label %40

28:                                               ; preds = %3
  %29 = load ptr, ptr %6, align 8, !tbaa !3
  %30 = getelementptr inbounds nuw %struct.lv_svg_attr_t, ptr %29, i32 0, i32 3
  %31 = load float, ptr %30, align 8, !tbaa !79
  %32 = load ptr, ptr %7, align 8, !tbaa !3
  %33 = getelementptr inbounds nuw %struct.lv_svg_render_ellipse_t, ptr %32, i32 0, i32 3
  store float %31, ptr %33, align 8, !tbaa !178
  br label %40

34:                                               ; preds = %3
  %35 = load ptr, ptr %6, align 8, !tbaa !3
  %36 = getelementptr inbounds nuw %struct.lv_svg_attr_t, ptr %35, i32 0, i32 3
  %37 = load float, ptr %36, align 8, !tbaa !79
  %38 = load ptr, ptr %7, align 8, !tbaa !3
  %39 = getelementptr inbounds nuw %struct.lv_svg_render_ellipse_t, ptr %38, i32 0, i32 4
  store float %37, ptr %39, align 4, !tbaa !179
  br label %40

40:                                               ; preds = %3, %34, %28, %22, %16
  call void @llvm.lifetime.end.p0(i64 8, ptr %7) #8
  ret void
}